target datalayout = "e-m:e-p270:32:32-p271:32:32-p272:64:64-i64:64-i128:128-f80:128-n8:16:32:64-S128"
target triple = "x86_64-unknown-linux-gnu"

%"class.smt::fingerprint" = type { ptr, i32, ptr, i32, ptr }
%"class.smt::fingerprint_set" = type { ptr, %class.ptr_hashtable, %class.ptr_vector, %class.ref_vector, %class.svector, %class.ptr_vector.3, %"class.smt::fingerprint" }
%class.ptr_hashtable = type { %class.core_hashtable.base, [4 x i8] }
%class.core_hashtable.base = type <{ ptr, i32, i32, i32 }>
%class.ptr_vector = type { %class.vector }
%class.vector = type { ptr }
%class.ref_vector = type { %class.ref_vector_core }
%class.ref_vector_core = type { %class.ref_manager_wrapper, %class.ptr_vector.0 }
%class.ref_manager_wrapper = type { ptr }
%class.ptr_vector.0 = type { %class.vector.1 }
%class.vector.1 = type { ptr }
%class.svector = type { %class.vector.2 }
%class.vector.2 = type { ptr }
%class.ptr_vector.3 = type { %class.vector.4 }
%class.vector.4 = type { ptr }

; Function Attrs: mustprogress uwtable
define linkonce_odr hidden noundef nonnull align 8 dereferenceable(8) ptr @_ZN6vectorIPN3smt5enodeELb0EjE9push_backERKS2_(ptr noundef nonnull align 8 dereferenceable(8) %this, ptr noundef nonnull align 8 dereferenceable(8) %elem) #5 comdat align 2 {
entry:
  %this.addr = alloca ptr, align 8
  %elem.addr = alloca ptr, align 8
  store ptr %this, ptr %this.addr, align 8
  store ptr %elem, ptr %elem.addr, align 8
  %this1 = load ptr, ptr %this.addr, align 8
  %m_data = getelementptr inbounds %class.vector.4, ptr %this1, i32 0, i32 0
  %0 = load ptr, ptr %m_data, align 8
  %cmp = icmp eq ptr %0, null
  br i1 %cmp, label %if.then, label %lor.lhs.false

lor.lhs.false:                                    ; preds = %entry
  %m_data2 = getelementptr inbounds %class.vector.4, ptr %this1, i32 0, i32 0
  %1 = load ptr, ptr %m_data2, align 8
  %arrayidx = getelementptr inbounds i32, ptr %1, i64 -1
  %2 = load i32, ptr %arrayidx, align 4
  %m_data3 = getelementptr inbounds %class.vector.4, ptr %this1, i32 0, i32 0
  %3 = load ptr, ptr %m_data3, align 8
  %arrayidx4 = getelementptr inbounds i32, ptr %3, i64 -2
  %4 = load i32, ptr %arrayidx4, align 4
  %cmp5 = icmp eq i32 %2, %4
  br i1 %cmp5, label %if.then, label %if.end

if.then:                                          ; preds = %lor.lhs.false, %entry
  call void @_ZN6vectorIPN3smt5enodeELb0EjE13expand_vectorEv(ptr noundef nonnull align 8 dereferenceable(8) %this1)
  br label %if.end

if.end:                                           ; preds = %if.then, %lor.lhs.false
  %m_data6 = getelementptr inbounds %class.vector.4, ptr %this1, i32 0, i32 0
  %5 = load ptr, ptr %m_data6, align 8
  %m_data7 = getelementptr inbounds %class.vector.4, ptr %this1, i32 0, i32 0
  %6 = load ptr, ptr %m_data7, align 8
  %arrayidx8 = getelementptr inbounds i32, ptr %6, i64 -1
  %7 = load i32, ptr %arrayidx8, align 4
  %idx.ext = zext i32 %7 to i64
  %add.ptr = getelementptr inbounds ptr, ptr %5, i64 %idx.ext
  %8 = load ptr, ptr %elem.addr, align 8
  %9 = load ptr, ptr %8, align 8
  store ptr %9, ptr %add.ptr, align 8
  %m_data9 = getelementptr inbounds %class.vector.4, ptr %this1, i32 0, i32 0
  %10 = load ptr, ptr %m_data9, align 8
  %arrayidx10 = getelementptr inbounds i32, ptr %10, i64 -1
  %11 = load i32, ptr %arrayidx10, align 4
  %inc = add i32 %11, 1
  store i32 %inc, ptr %arrayidx10, align 4
  ret ptr %this1
}

; Function Attrs: mustprogress nounwind uwtable
define linkonce_odr hidden noundef ptr @_ZNK6vectorIPN3smt5enodeELb0EjE4dataEv(ptr noundef nonnull align 8 dereferenceable(8) %this) #4 comdat align 2 {
entry:
  %this.addr = alloca ptr, align 8
  store ptr %this, ptr %this.addr, align 8
  %this1 = load ptr, ptr %this.addr, align 8
  %m_data = getelementptr inbounds %class.vector.4, ptr %this1, i32 0, i32 0
  %0 = load ptr, ptr %m_data, align 8
  ret ptr %0
}

; Function Attrs: mustprogress uwtable
define linkonce_odr hidden void @_ZN6vectorIPN3smt5enodeELb0EjE6appendEjPKS2_(ptr noundef nonnull align 8 dereferenceable(8) %this, i32 noundef %sz, ptr noundef %data) #5 comdat align 2 {
entry:
  %this.addr = alloca ptr, align 8
  %sz.addr = alloca i32, align 4
  %data.addr = alloca ptr, align 8
  %i = alloca i32, align 4
  store ptr %this, ptr %this.addr, align 8
  store i32 %sz, ptr %sz.addr, align 4
  store ptr %data, ptr %data.addr, align 8
  %this1 = load ptr, ptr %this.addr, align 8
  store i32 0, ptr %i, align 4
  br label %for.cond

for.cond:                                         ; preds = %for.inc, %entry
  %0 = load i32, ptr %i, align 4
  %1 = load i32, ptr %sz.addr, align 4
  %cmp = icmp ult i32 %0, %1
  br i1 %cmp, label %for.body, label %for.end

for.body:                                         ; preds = %for.cond
  %2 = load ptr, ptr %data.addr, align 8
  %3 = load i32, ptr %i, align 4
  %idxprom = zext i32 %3 to i64
  %arrayidx = getelementptr inbounds ptr, ptr %2, i64 %idxprom
  %call = call noundef nonnull align 8 dereferenceable(8) ptr @_ZN6vectorIPN3smt5enodeELb0EjE9push_backERKS2_(ptr noundef nonnull align 8 dereferenceable(8) %this1, ptr noundef nonnull align 8 dereferenceable(8) %arrayidx)
  br label %for.inc

for.inc:                                          ; preds = %for.body
  %4 = load i32, ptr %i, align 4
  %inc = add i32 %4, 1
  store i32 %inc, ptr %i, align 4
  br label %for.cond, !llvm.loop !6

for.end:                                          ; preds = %for.cond
  ret void
}

; Function Attrs: mustprogress nounwind uwtable
define linkonce_odr hidden void @_ZN6vectorIPN3smt5enodeELb0EjE5resetEv(ptr noundef nonnull align 8 dereferenceable(8) %this) #4 comdat align 2 {
entry:
  %this.addr = alloca ptr, align 8
  store ptr %this, ptr %this.addr, align 8
  %this1 = load ptr, ptr %this.addr, align 8
  %m_data = getelementptr inbounds %class.vector.4, ptr %this1, i32 0, i32 0
  %0 = load ptr, ptr %m_data, align 8
  %tobool = icmp ne ptr %0, null
  br i1 %tobool, label %if.then, label %if.end

if.then:                                          ; preds = %entry
  %m_data2 = getelementptr inbounds %class.vector.4, ptr %this1, i32 0, i32 0
  %1 = load ptr, ptr %m_data2, align 8
  %arrayidx = getelementptr inbounds i32, ptr %1, i64 -1
  store i32 0, ptr %arrayidx, align 4
  br label %if.end

if.end:                                           ; preds = %if.then, %entry
  ret void
}

; Function Attrs: mustprogress uwtable
define hidden noundef ptr @_ZN3smt15fingerprint_set8mk_dummyEPvjjPKPNS_5enodeE(ptr noundef nonnull align 8 dereferenceable(112) %this, ptr noundef %data, i32 noundef %data_hash, i32 noundef %num_args, ptr noundef %args) #5 align 2 {
entry:
  %this.addr = alloca ptr, align 8
  %data.addr = alloca ptr, align 8
  %data_hash.addr = alloca i32, align 4
  %num_args.addr = alloca i32, align 4
  %args.addr = alloca ptr, align 8
  store ptr %this, ptr %this.addr, align 8
  store ptr %data, ptr %data.addr, align 8
  store i32 %data_hash, ptr %data_hash.addr, align 4
  store i32 %num_args, ptr %num_args.addr, align 4
  store ptr %args, ptr %args.addr, align 8
  %this1 = load ptr, ptr %this.addr, align 8
  %m_tmp = getelementptr inbounds %"class.smt::fingerprint_set", ptr %this1, i32 0, i32 5
  call void @_ZN6vectorIPN3smt5enodeELb0EjE5resetEv(ptr noundef nonnull align 8 dereferenceable(8) %m_tmp)
  %m_tmp2 = getelementptr inbounds %"class.smt::fingerprint_set", ptr %this1, i32 0, i32 5
  %0 = load i32, ptr %num_args.addr, align 4
  %1 = load ptr, ptr %args.addr, align 8
  call void @_ZN6vectorIPN3smt5enodeELb0EjE6appendEjPKS2_(ptr noundef nonnull align 8 dereferenceable(8) %m_tmp2, i32 noundef %0, ptr noundef %1)
  %2 = load ptr, ptr %data.addr, align 8
  %m_dummy = getelementptr inbounds %"class.smt::fingerprint_set", ptr %this1, i32 0, i32 6
  %m_data = getelementptr inbounds %"class.smt::fingerprint", ptr %m_dummy, i32 0, i32 0
  store ptr %2, ptr %m_data, align 8
  %3 = load i32, ptr %data_hash.addr, align 4
  %m_dummy3 = getelementptr inbounds %"class.smt::fingerprint_set", ptr %this1, i32 0, i32 6
  %m_data_hash = getelementptr inbounds %"class.smt::fingerprint", ptr %m_dummy3, i32 0, i32 1
  store i32 %3, ptr %m_data_hash, align 8
  %4 = load i32, ptr %num_args.addr, align 4
  %m_dummy4 = getelementptr inbounds %"class.smt::fingerprint_set", ptr %this1, i32 0, i32 6
  %m_num_args = getelementptr inbounds %"class.smt::fingerprint", ptr %m_dummy4, i32 0, i32 3
  store i32 %4, ptr %m_num_args, align 8
  %m_tmp5 = getelementptr inbounds %"class.smt::fingerprint_set", ptr %this1, i32 0, i32 5
  %call = call noundef ptr @_ZNK6vectorIPN3smt5enodeELb0EjE4dataEv(ptr noundef nonnull align 8 dereferenceable(8) %m_tmp5)
  %m_dummy6 = getelementptr inbounds %"class.smt::fingerprint_set", ptr %this1, i32 0, i32 6
  %m_args = getelementptr inbounds %"class.smt::fingerprint", ptr %m_dummy6, i32 0, i32 4
  store ptr %call, ptr %m_args, align 8
  %m_dummy7 = getelementptr inbounds %"class.smt::fingerprint_set", ptr %this1, i32 0, i32 6
  ret ptr %m_dummy7
}