; Function Attrs: mustprogress uwtable
define hidden noundef nonnull ptr @_ZN3smt15fingerprint_set8mk_dummyEPvjjPKPNS_5enodeE(ptr noundef nonnull align 8 dereferenceable(112) %this, ptr noundef %data, i32 noundef %data_hash, i32 noundef %num_args, ptr nocapture noundef readonly %args) local_unnamed_addr #3 align 2 {
entry:
  %m_tmp = getelementptr inbounds i8, ptr %this, i64 64
  %0 = load ptr, ptr %m_tmp, align 8
  %tobool.not.i = icmp eq ptr %0, null
  br i1 %tobool.not.i, label %_ZN6vectorIPN3smt5enodeELb0EjE5resetEv.exit, label %if.then.i

if.then.i:                                        ; preds = %entry
  %arrayidx.i = getelementptr inbounds i8, ptr %0, i64 -4
  store i32 0, ptr %arrayidx.i, align 4
  br label %_ZN6vectorIPN3smt5enodeELb0EjE5resetEv.exit

_ZN6vectorIPN3smt5enodeELb0EjE5resetEv.exit:      ; preds = %entry, %if.then.i
  %cmp3.not.i = icmp eq i32 %num_args, 0
  br i1 %cmp3.not.i, label %_ZN6vectorIPN3smt5enodeELb0EjE6appendEjPKS2_.exit, label %for.body.preheader.i

for.body.preheader.i:                             ; preds = %_ZN6vectorIPN3smt5enodeELb0EjE5resetEv.exit
  %wide.trip.count.i = zext i32 %num_args to i64
  br label %for.body.i

for.body.i:                                       ; preds = %_ZN6vectorIPN3smt5enodeELb0EjE9push_backERKS2_.exit.i, %for.body.preheader.i
  %indvars.iv.i = phi i64 [ 0, %for.body.preheader.i ], [ %indvars.iv.next.i, %_ZN6vectorIPN3smt5enodeELb0EjE9push_backERKS2_.exit.i ]
  %arrayidx.i2 = getelementptr inbounds ptr, ptr %args, i64 %indvars.iv.i
  %1 = load ptr, ptr %m_tmp, align 8
  %cmp.i.i = icmp eq ptr %1, null
  br i1 %cmp.i.i, label %if.then.i.i, label %lor.lhs.false.i.i

lor.lhs.false.i.i:                                ; preds = %for.body.i
  %arrayidx.i.i = getelementptr inbounds i8, ptr %1, i64 -4
  %2 = load i32, ptr %arrayidx.i.i, align 4
  %arrayidx4.i.i = getelementptr inbounds i8, ptr %1, i64 -8
  %3 = load i32, ptr %arrayidx4.i.i, align 4
  %cmp5.i.i = icmp eq i32 %2, %3
  br i1 %cmp5.i.i, label %if.then.i.i, label %_ZN6vectorIPN3smt5enodeELb0EjE9push_backERKS2_.exit.i

if.then.i.i:                                      ; preds = %lor.lhs.false.i.i, %for.body.i
  tail call void @_ZN6vectorIPN3smt5enodeELb0EjE13expand_vectorEv(ptr noundef nonnull align 8 dereferenceable(8) %m_tmp)
  %.pre.i.i = load ptr, ptr %m_tmp, align 8
  %arrayidx8.phi.trans.insert.i.i = getelementptr inbounds i8, ptr %.pre.i.i, i64 -4
  %.pre1.i.i = load i32, ptr %arrayidx8.phi.trans.insert.i.i, align 4
  br label %_ZN6vectorIPN3smt5enodeELb0EjE9push_backERKS2_.exit.i

_ZN6vectorIPN3smt5enodeELb0EjE9push_backERKS2_.exit.i: ; preds = %if.then.i.i, %lor.lhs.false.i.i
  %4 = phi i32 [ %.pre1.i.i, %if.then.i.i ], [ %2, %lor.lhs.false.i.i ]
  %5 = phi ptr [ %.pre.i.i, %if.then.i.i ], [ %1, %lor.lhs.false.i.i ]
  %idx.ext.i.i = zext i32 %4 to i64
  %add.ptr.i.i = getelementptr inbounds ptr, ptr %5, i64 %idx.ext.i.i
  %6 = load ptr, ptr %arrayidx.i2, align 8
  store ptr %6, ptr %add.ptr.i.i, align 8
  %7 = load ptr, ptr %m_tmp, align 8
  %arrayidx10.i.i = getelementptr inbounds i8, ptr %7, i64 -4
  %8 = load i32, ptr %arrayidx10.i.i, align 4
  %inc.i.i = add i32 %8, 1
  store i32 %inc.i.i, ptr %arrayidx10.i.i, align 4
  %indvars.iv.next.i = add nuw nsw i64 %indvars.iv.i, 1
  %exitcond.not.i = icmp eq i64 %indvars.iv.next.i, %wide.trip.count.i
  br i1 %exitcond.not.i, label %_ZN6vectorIPN3smt5enodeELb0EjE6appendEjPKS2_.exit, label %for.body.i, !llvm.loop !6

_ZN6vectorIPN3smt5enodeELb0EjE6appendEjPKS2_.exit: ; preds = %_ZN6vectorIPN3smt5enodeELb0EjE9push_backERKS2_.exit.i, %_ZN6vectorIPN3smt5enodeELb0EjE5resetEv.exit
  %m_dummy = getelementptr inbounds i8, ptr %this, i64 72
  store ptr %data, ptr %m_dummy, align 8
  %m_data_hash = getelementptr inbounds i8, ptr %this, i64 80
  store i32 %data_hash, ptr %m_data_hash, align 8
  %m_num_args = getelementptr inbounds i8, ptr %this, i64 96
  store i32 %num_args, ptr %m_num_args, align 8
  %9 = load ptr, ptr %m_tmp, align 8
  %m_args = getelementptr inbounds i8, ptr %this, i64 104
  store ptr %9, ptr %m_args, align 8
  ret ptr %m_dummy
}